; Function Attrs: mustprogress nounwind uwtable
define hidden void @_ZN12Disassembler6decodeEP8CodeBlobP12outputStream(ptr noundef %0, ptr noundef %1) local_unnamed_addr #0 align 2 {
  %3 = alloca %class.decode_env, align 8
  %4 = getelementptr inbounds i8, ptr %0, i64 52
  %5 = load i8, ptr %4, align 4
  %6 = icmp eq i8 %5, 1
  br i1 %6, label %7, label %_ZN10decode_envC2EP8CodeBlobP12outputStream.exit

7:                                                ; preds = %2
  tail call void @_ZNK7nmethod7decode2EP12outputStream(ptr noundef nonnull align 8 dereferenceable(214) %0, ptr noundef %1) #11
  br label %73

_ZN10decode_envC2EP8CodeBlobP12outputStream.exit: ; preds = %2
  %.not.i = icmp eq ptr %1, null
  %8 = load ptr, ptr @tty, align 8
  %9 = select i1 %.not.i, ptr %8, ptr %1
  store ptr %9, ptr %3, align 8
  %10 = getelementptr inbounds i8, ptr %3, i64 8
  store ptr %0, ptr %10, align 8
  %11 = getelementptr inbounds i8, ptr %3, i64 16
  %12 = getelementptr inbounds i8, ptr %3, i64 24
  %13 = getelementptr inbounds i8, ptr %3, i64 560
  call void @llvm.memset.p0.i64(ptr noundef nonnull align 8 dereferenceable(23) %13, i8 0, i64 23, i1 false)
  call void @llvm.memset.p0.i64(ptr noundef nonnull align 8 dereferenceable(537) %11, i8 0, i64 537, i1 false)
  call void @_ZN10decode_env15process_optionsEP12outputStream(ptr noundef nonnull align 8 dereferenceable(583) %3, ptr noundef %9)
  %14 = load ptr, ptr %3, align 8
  call void (ptr, ptr, ...) @_ZN12outputStream8print_crEPKcz(ptr noundef nonnull align 8 dereferenceable(56) %14, ptr noundef nonnull @.str.65) #11
  %15 = load ptr, ptr %3, align 8
  call void (ptr, ptr, ...) @_ZN12outputStream5printEPKcz(ptr noundef nonnull align 8 dereferenceable(56) %15, ptr noundef nonnull @.str.66) #11
  %16 = getelementptr inbounds i8, ptr %0, i64 16
  %17 = load ptr, ptr %16, align 8
  %.not = icmp eq ptr %17, null
  br i1 %.not, label %20, label %18

18:                                               ; preds = %_ZN10decode_envC2EP8CodeBlobP12outputStream.exit
  %19 = load ptr, ptr %3, align 8
  call void (ptr, ptr, ...) @_ZN12outputStream5printEPKcz(ptr noundef nonnull align 8 dereferenceable(56) %19, ptr noundef nonnull @.str.67, ptr noundef nonnull %17) #11
  br label %20

20:                                               ; preds = %18, %_ZN10decode_envC2EP8CodeBlobP12outputStream.exit
  %21 = load ptr, ptr %3, align 8
  %22 = getelementptr inbounds i8, ptr %0, i64 36
  %23 = load i32, ptr %22, align 4
  %24 = sext i32 %23 to i64
  %25 = getelementptr inbounds i8, ptr %0, i64 %24
  %26 = ptrtoint ptr %25 to i64
  %27 = getelementptr inbounds i8, ptr %0, i64 40
  %28 = load i32, ptr %27, align 8
  %29 = sext i32 %28 to i64
  %30 = getelementptr inbounds i8, ptr %0, i64 %29
  %31 = ptrtoint ptr %30 to i64
  %gepdiff = sub nsw i64 %29, %24
  call void (ptr, ptr, ...) @_ZN12outputStream8print_crEPKcz(ptr noundef nonnull align 8 dereferenceable(56) %21, ptr noundef nonnull @.str.68, i64 noundef %26, i64 noundef %31, i64 noundef %gepdiff) #11
  %32 = load i8, ptr @_ZN12Disassembler22_tried_to_load_libraryE, align 1
  %33 = trunc i8 %32 to i1
  br i1 %33, label %_ZN12Disassembler11is_abstractEv.exit, label %34

34:                                               ; preds = %20
  %35 = call noundef zeroext i1 @_ZN12Disassembler12load_libraryEP12outputStream(ptr noundef null)
  br label %_ZN12Disassembler11is_abstractEv.exit

_ZN12Disassembler11is_abstractEv.exit:            ; preds = %20, %34
  %36 = load i8, ptr @_ZN12Disassembler15_library_usableE, align 1
  %37 = trunc i8 %36 to i1
  %38 = load i32, ptr %22, align 4
  %39 = sext i32 %38 to i64
  %40 = getelementptr inbounds i8, ptr %0, i64 %39
  %41 = load i32, ptr %27, align 8
  %42 = sext i32 %41 to i64
  %43 = getelementptr inbounds i8, ptr %0, i64 %42
  br i1 %37, label %46, label %44

44:                                               ; preds = %_ZN12Disassembler11is_abstractEv.exit
  %45 = load ptr, ptr %3, align 8
  call void @_ZN20AbstractDisassembler15decode_abstractEPhS0_P12outputStreami(ptr noundef %40, ptr noundef %43, ptr noundef %45, i32 noundef 4) #11
  br label %_ZN10decode_env19decode_instructionsEPhS0_S0_.exit

46:                                               ; preds = %_ZN12Disassembler11is_abstractEv.exit
  store ptr %40, ptr %12, align 8
  %47 = getelementptr inbounds i8, ptr %3, i64 32
  store ptr %43, ptr %47, align 8
  %48 = load i8, ptr @_ZN12Disassembler22_tried_to_load_libraryE, align 1
  %49 = trunc i8 %48 to i1
  br i1 %49, label %_ZN12Disassembler11is_abstractEv.exit.i, label %50

50:                                               ; preds = %46
  %51 = call noundef zeroext i1 @_ZN12Disassembler12load_libraryEP12outputStream(ptr noundef null)
  %.pre = load i8, ptr @_ZN12Disassembler15_library_usableE, align 1
  br label %_ZN12Disassembler11is_abstractEv.exit.i

_ZN12Disassembler11is_abstractEv.exit.i:          ; preds = %50, %46
  %52 = phi i8 [ %.pre, %50 ], [ %36, %46 ]
  %53 = trunc i8 %52 to i1
  br i1 %53, label %54, label %_ZN10decode_env19decode_instructionsEPhS0_S0_.exit

54:                                               ; preds = %_ZN12Disassembler11is_abstractEv.exit.i
  %55 = getelementptr inbounds i8, ptr %3, i64 552
  %56 = load i8, ptr %55, align 8
  %.not30.i = icmp eq i8 %56, 0
  br i1 %.not30.i, label %66, label %57

57:                                               ; preds = %54
  %58 = load ptr, ptr @stdout, align 8
  %59 = icmp sgt i8 %56, 1
  %60 = select i1 %59, ptr %58, ptr null
  %61 = load ptr, ptr @_ZN12Disassembler28_decode_instructions_virtualE, align 8
  %62 = ptrtoint ptr %40 to i64
  %63 = ptrtoint ptr %43 to i64
  %gepdiff16 = sub nsw i64 %42, %39
  %64 = getelementptr inbounds i8, ptr %3, i64 40
  %65 = call noundef ptr %61(i64 noundef %62, i64 noundef %63, ptr noundef nonnull %40, i64 noundef %gepdiff16, ptr noundef null, ptr noundef %60, ptr noundef null, ptr noundef %58, ptr noundef nonnull %64, i32 noundef 0) #11
  br label %_ZN10decode_env19decode_instructionsEPhS0_S0_.exit

66:                                               ; preds = %54
  %67 = load ptr, ptr @_ZN12Disassembler28_decode_instructions_virtualE, align 8
  %68 = ptrtoint ptr %40 to i64
  %69 = ptrtoint ptr %43 to i64
  %gepdiff17 = sub nsw i64 %42, %39
  %70 = getelementptr inbounds i8, ptr %3, i64 40
  %71 = call noundef ptr %67(i64 noundef %68, i64 noundef %69, ptr noundef nonnull %40, i64 noundef %gepdiff17, ptr noundef nonnull @_ZL12event_to_envPvPKcS_, ptr noundef nonnull %3, ptr noundef nonnull @_ZL13printf_to_envPvPKcz, ptr noundef nonnull %3, ptr noundef nonnull %70, i32 noundef 0) #11
  br label %_ZN10decode_env19decode_instructionsEPhS0_S0_.exit

_ZN10decode_env19decode_instructionsEPhS0_S0_.exit: ; preds = %66, %57, %_ZN12Disassembler11is_abstractEv.exit.i, %44
  %72 = load ptr, ptr %3, align 8
  call void (ptr, ptr, ...) @_ZN12outputStream8print_crEPKcz(ptr noundef nonnull align 8 dereferenceable(56) %72, ptr noundef nonnull @.str.65) #11
  br label %73

73:                                               ; preds = %_ZN10decode_env19decode_instructionsEPhS0_S0_.exit, %7
  ret void
}